; Function Attrs: nounwind uwtable
define internal noundef i32 @lj_cf_ffi_gc(ptr noundef %0) #0 {
  %2 = getelementptr inbounds nuw i8, ptr %0, i64 32
  %3 = load ptr, ptr %2, align 8, !tbaa !44
  %4 = getelementptr inbounds nuw i8, ptr %0, i64 40
  %5 = load ptr, ptr %4, align 8, !tbaa !4
  %6 = icmp ult ptr %3, %5
  br i1 %6, label %7, label %10

7:                                                ; preds = %1
  %8 = load i64, ptr %3, align 8, !tbaa !23
  %.mask.i = and i64 %8, -140737488355328
  %9 = icmp eq i64 %.mask.i, -1548112371908608
  br i1 %9, label %ffi_checkcdata.exit, label %10

10:                                               ; preds = %7, %1
  tail call void @lj_err_argt(ptr noundef nonnull %0, i32 noundef 1, i32 noundef 10) #10
  unreachable

ffi_checkcdata.exit:                              ; preds = %7
  %11 = and i64 %8, 140737488355327
  %12 = inttoptr i64 %11 to ptr
  %13 = tail call ptr @lj_lib_checkany(ptr noundef nonnull %0, i32 noundef 2) #9
  %14 = getelementptr inbounds nuw i8, ptr %0, i64 16
  %15 = load i64, ptr %14, align 8, !tbaa !24
  %16 = inttoptr i64 %15 to ptr
  %17 = getelementptr inbounds nuw i8, ptr %16, i64 384
  %18 = load i64, ptr %17, align 8, !tbaa !41
  %19 = inttoptr i64 %18 to ptr
  %20 = getelementptr inbounds nuw i8, ptr %19, i64 16
  store ptr %0, ptr %20, align 8, !tbaa !42
  %21 = getelementptr inbounds nuw i8, ptr %12, i64 10
  %22 = load i16, ptr %21, align 2, !tbaa !48
  %23 = load ptr, ptr %19, align 8, !tbaa !51
  %24 = zext i16 %22 to i64
  br label %25

25:                                               ; preds = %25, %ffi_checkcdata.exit
  %.pn = phi i64 [ %24, %ffi_checkcdata.exit ], [ %29, %25 ]
  %.0.i = getelementptr inbounds nuw %struct.CType, ptr %23, i64 %.pn
  %26 = load i32, ptr %.0.i, align 8, !tbaa !52
  %27 = icmp slt i32 %26, -1879048192
  %28 = and i32 %26, 65535
  %29 = zext nneg i32 %28 to i64
  br i1 %27, label %25, label %ctype_raw.exit, !llvm.loop !54

ctype_raw.exit:                                   ; preds = %25
  %30 = lshr i32 %26, 28
  %.off = add nsw i32 %30, -1
  %switch = icmp ult i32 %.off, 2
  %31 = and i32 %26, -67108864
  %32 = icmp eq i32 %31, 805306368
  %or.cond = or i1 %32, %switch
  br i1 %or.cond, label %34, label %33

33:                                               ; preds = %ctype_raw.exit
  tail call void @lj_err_arg(ptr noundef nonnull %0, i32 noundef 1, i32 noundef 3016) #10
  unreachable

34:                                               ; preds = %ctype_raw.exit
  %35 = load i64, ptr %13, align 8, !tbaa !23
  %36 = and i64 %35, 140737488355327
  %37 = inttoptr i64 %36 to ptr
  %38 = ashr i64 %35, 47
  %39 = trunc nsw i64 %38 to i32
  tail call void @lj_cdata_setfin(ptr noundef nonnull %0, ptr noundef %12, ptr noundef %37, i32 noundef %39) #9
  %40 = load ptr, ptr %2, align 8, !tbaa !44
  %41 = getelementptr inbounds nuw i8, ptr %40, i64 8
  store ptr %41, ptr %4, align 8, !tbaa !4
  ret i32 1
}